target datalayout = "e-m:e-p270:32:32-p271:32:32-p272:64:64-i64:64-i128:128-f80:128-n8:16:32:64-S128"
target triple = "x86_64-pc-linux-gnu"

%struct.sig_params_st = type { ptr, i64, ptr, i64, i32, i32 }
%struct.ossl_param_st = type { ptr, i32, ptr, i64, i64 }

@lib_ctx = internal global ptr null, align 8
@.str.29 = private unnamed_addr constant [30 x i8] c"../openssl/test/ml_dsa_test.c\00", align 1
@.str.44 = private unnamed_addr constant [2 x i8] c"1\00", align 1
@.str.48 = private unnamed_addr constant [17 x i8] c"message-encoding\00", align 1
@.str.62 = private unnamed_addr constant [7 x i8] c"SHA256\00", align 1
@.str.74 = private unnamed_addr constant [10 x i8] c"ML-DSA-44\00", align 1
@.str.92 = private unnamed_addr constant [2 x i8] c"0\00", align 1
@.str.104 = private unnamed_addr constant [31 x i8] c"key = do_gen_key(alg, NULL, 0)\00", align 1
@.str.105 = private unnamed_addr constant [15 x i8] c"context-string\00", align 1
@.str.110 = private unnamed_addr constant [30 x i8] c"sig = OPENSSL_zalloc(sig_len)\00", align 1
@.str.127 = private unnamed_addr constant [24 x i8] c"mctx = EVP_MD_CTX_new()\00", align 1
@.str.128 = private unnamed_addr constant [80 x i8] c"EVP_DigestSignInit_ex(mctx, NULL, \22SHA256\22, lib_ctx, \22?fips=true\22, key, params)\00", align 1
@.str.129 = private unnamed_addr constant [11 x i8] c"?fips=true\00", align 1
@.str.130 = private unnamed_addr constant [76 x i8] c"EVP_DigestSignInit_ex(mctx, NULL, NULL, lib_ctx, \22?fips=true\22, key, params)\00", align 1
@.str.131 = private unnamed_addr constant [59 x i8] c"EVP_DigestSign(mctx, NULL, &sig_len, sp->msg, sp->msg_len)\00", align 1
@.str.132 = private unnamed_addr constant [58 x i8] c"EVP_DigestSign(mctx, sig, &sig_len, sp->msg, sp->msg_len)\00", align 1
@.str.133 = private unnamed_addr constant [82 x i8] c"EVP_DigestVerifyInit_ex(mctx, NULL, \22SHA256\22, lib_ctx, \22?fips=true\22, key, params)\00", align 1
@.str.134 = private unnamed_addr constant [78 x i8] c"EVP_DigestVerifyInit_ex(mctx, NULL, NULL, lib_ctx, \22?fips=true\22, key, params)\00", align 1
@.str.135 = private unnamed_addr constant [59 x i8] c"EVP_DigestVerify(mctx, sig, sig_len, sp->msg, sp->msg_len)\00", align 1

; Function Attrs: nounwind uwtable
define internal i32 @ml_dsa_digest_sign_verify_test() #0 {
  %1 = alloca i32, align 4
  %2 = alloca ptr, align 8
  %3 = alloca ptr, align 8
  %4 = alloca ptr, align 8
  %5 = alloca i64, align 8
  %6 = alloca [3 x %struct.ossl_param_st], align 16
  %7 = alloca ptr, align 8
  %8 = alloca ptr, align 8
  %9 = alloca ptr, align 8
  %10 = alloca %struct.ossl_param_st, align 8
  %11 = alloca %struct.ossl_param_st, align 8
  %12 = alloca %struct.ossl_param_st, align 8
  call void @llvm.lifetime.start.p0(i64 4, ptr %1) #4
  store i32 0, ptr %1, align 4, !tbaa !9
  call void @llvm.lifetime.start.p0(i64 8, ptr %2) #4
  store ptr @sig_params, ptr %2, align 8, !tbaa !63
  call void @llvm.lifetime.start.p0(i64 8, ptr %3) #4
  store ptr null, ptr %3, align 8, !tbaa !15
  call void @llvm.lifetime.start.p0(i64 8, ptr %4) #4
  store ptr null, ptr %4, align 8, !tbaa !4
  call void @llvm.lifetime.start.p0(i64 8, ptr %5) #4
  store i64 0, ptr %5, align 8, !tbaa !22
  call void @llvm.lifetime.start.p0(i64 120, ptr %6) #4
  call void @llvm.lifetime.start.p0(i64 8, ptr %7) #4
  %13 = getelementptr inbounds [3 x %struct.ossl_param_st], ptr %6, i64 0, i64 0
  store ptr %13, ptr %7, align 8, !tbaa !33
  call void @llvm.lifetime.start.p0(i64 8, ptr %8) #4
  store ptr @.str.74, ptr %8, align 8, !tbaa !4
  call void @llvm.lifetime.start.p0(i64 8, ptr %9) #4
  store ptr null, ptr %9, align 8, !tbaa !65
  %14 = load ptr, ptr %8, align 8, !tbaa !4
  %15 = call ptr @do_gen_key(ptr noundef %14, ptr noundef null, i64 noundef 0)
  store ptr %15, ptr %3, align 8, !tbaa !15
  %16 = call i32 @test_ptr(ptr noundef @.str.29, i32 noundef 450, ptr noundef @.str.104, ptr noundef %15)
  %17 = icmp ne i32 %16, 0
  br i1 %17, label %19, label %18

18:                                               ; preds = %0
  br label %151

19:                                               ; preds = %0
  %20 = load ptr, ptr %7, align 8, !tbaa !33
  %21 = getelementptr inbounds nuw %struct.ossl_param_st, ptr %20, i32 1
  store ptr %21, ptr %7, align 8, !tbaa !33
  call void @llvm.lifetime.start.p0(i64 40, ptr %10) #4
  %22 = load ptr, ptr %2, align 8, !tbaa !63
  %23 = getelementptr inbounds nuw %struct.sig_params_st, ptr %22, i32 0, i32 4
  call void @OSSL_PARAM_construct_int(ptr dead_on_unwind writable sret(%struct.ossl_param_st) align 8 %10, ptr noundef @.str.48, ptr noundef %23)
  call void @llvm.memcpy.p0.p0.i64(ptr align 8 %20, ptr align 8 %10, i64 40, i1 false), !tbaa.struct !35
  call void @llvm.lifetime.end.p0(i64 40, ptr %10) #4
  %24 = load ptr, ptr %2, align 8, !tbaa !63
  %25 = getelementptr inbounds nuw %struct.sig_params_st, ptr %24, i32 0, i32 2
  %26 = load ptr, ptr %25, align 8, !tbaa !67
  %27 = icmp ne ptr %26, null
  br i1 %27, label %28, label %37

28:                                               ; preds = %19
  %29 = load ptr, ptr %7, align 8, !tbaa !33
  %30 = getelementptr inbounds nuw %struct.ossl_param_st, ptr %29, i32 1
  store ptr %30, ptr %7, align 8, !tbaa !33
  call void @llvm.lifetime.start.p0(i64 40, ptr %11) #4
  %31 = load ptr, ptr %2, align 8, !tbaa !63
  %32 = getelementptr inbounds nuw %struct.sig_params_st, ptr %31, i32 0, i32 2
  %33 = load ptr, ptr %32, align 8, !tbaa !67
  %34 = load ptr, ptr %2, align 8, !tbaa !63
  %35 = getelementptr inbounds nuw %struct.sig_params_st, ptr %34, i32 0, i32 3
  %36 = load i64, ptr %35, align 8, !tbaa !69
  call void @OSSL_PARAM_construct_octet_string(ptr dead_on_unwind writable sret(%struct.ossl_param_st) align 8 %11, ptr noundef @.str.105, ptr noundef %33, i64 noundef %36)
  call void @llvm.memcpy.p0.p0.i64(ptr align 8 %29, ptr align 8 %11, i64 40, i1 false), !tbaa.struct !35
  call void @llvm.lifetime.end.p0(i64 40, ptr %11) #4
  br label %37

37:                                               ; preds = %28, %19
  %38 = load ptr, ptr %7, align 8, !tbaa !33
  %39 = getelementptr inbounds nuw %struct.ossl_param_st, ptr %38, i32 1
  store ptr %39, ptr %7, align 8, !tbaa !33
  call void @llvm.lifetime.start.p0(i64 40, ptr %12) #4
  call void @OSSL_PARAM_construct_end(ptr dead_on_unwind writable sret(%struct.ossl_param_st) align 8 %12)
  call void @llvm.memcpy.p0.p0.i64(ptr align 8 %38, ptr align 8 %12, i64 40, i1 false), !tbaa.struct !35
  call void @llvm.lifetime.end.p0(i64 40, ptr %12) #4
  %40 = call ptr @EVP_MD_CTX_new()
  store ptr %40, ptr %9, align 8, !tbaa !65
  %41 = call i32 @test_ptr(ptr noundef @.str.29, i32 noundef 460, ptr noundef @.str.127, ptr noundef %40)
  %42 = icmp ne i32 %41, 0
  br i1 %42, label %43, label %59

43:                                               ; preds = %37
  %44 = load ptr, ptr %9, align 8, !tbaa !65
  %45 = load ptr, ptr @lib_ctx, align 8, !tbaa !43
  %46 = load ptr, ptr %3, align 8, !tbaa !15
  %47 = getelementptr inbounds [3 x %struct.ossl_param_st], ptr %6, i64 0, i64 0
  %48 = call i32 @EVP_DigestSignInit_ex(ptr noundef %44, ptr noundef null, ptr noundef @.str.62, ptr noundef %45, ptr noundef @.str.129, ptr noundef %46, ptr noundef %47)
  %49 = call i32 @test_int_eq(ptr noundef @.str.29, i32 noundef 463, ptr noundef @.str.128, ptr noundef @.str.92, i32 noundef %48, i32 noundef 0)
  %50 = icmp ne i32 %49, 0
  br i1 %50, label %51, label %59

51:                                               ; preds = %43
  %52 = load ptr, ptr %9, align 8, !tbaa !65
  %53 = load ptr, ptr @lib_ctx, align 8, !tbaa !43
  %54 = load ptr, ptr %3, align 8, !tbaa !15
  %55 = getelementptr inbounds [3 x %struct.ossl_param_st], ptr %6, i64 0, i64 0
  %56 = call i32 @EVP_DigestSignInit_ex(ptr noundef %52, ptr noundef null, ptr noundef null, ptr noundef %53, ptr noundef @.str.129, ptr noundef %54, ptr noundef %55)
  %57 = call i32 @test_int_eq(ptr noundef @.str.29, i32 noundef 465, ptr noundef @.str.130, ptr noundef @.str.44, i32 noundef %56, i32 noundef 1)
  %58 = icmp ne i32 %57, 0
  br i1 %58, label %60, label %59

59:                                               ; preds = %51, %43, %37
  br label %151

60:                                               ; preds = %51
  %61 = load ptr, ptr %2, align 8, !tbaa !63
  %62 = getelementptr inbounds nuw %struct.sig_params_st, ptr %61, i32 0, i32 5
  %63 = load i32, ptr %62, align 4, !tbaa !70
  %64 = icmp eq i32 %63, 0
  br i1 %64, label %65, label %66

65:                                               ; preds = %60
  store i32 1, ptr %1, align 4, !tbaa !9
  br label %151

66:                                               ; preds = %60
  %67 = load ptr, ptr %9, align 8, !tbaa !65
  %68 = load ptr, ptr %2, align 8, !tbaa !63
  %69 = getelementptr inbounds nuw %struct.sig_params_st, ptr %68, i32 0, i32 0
  %70 = load ptr, ptr %69, align 8, !tbaa !71
  %71 = load ptr, ptr %2, align 8, !tbaa !63
  %72 = getelementptr inbounds nuw %struct.sig_params_st, ptr %71, i32 0, i32 1
  %73 = load i64, ptr %72, align 8, !tbaa !72
  %74 = call i32 @EVP_DigestSign(ptr noundef %67, ptr noundef null, ptr noundef %5, ptr noundef %70, i64 noundef %73)
  %75 = call i32 @test_int_eq(ptr noundef @.str.29, i32 noundef 471, ptr noundef @.str.131, ptr noundef @.str.44, i32 noundef %74, i32 noundef 1)
  %76 = icmp ne i32 %75, 0
  br i1 %76, label %77, label %82

77:                                               ; preds = %66
  %78 = load i64, ptr %5, align 8, !tbaa !22
  %79 = call noalias ptr @CRYPTO_zalloc(i64 noundef %78, ptr noundef @.str.29, i32 noundef 472)
  store ptr %79, ptr %4, align 8, !tbaa !4
  %80 = call i32 @test_ptr(ptr noundef @.str.29, i32 noundef 472, ptr noundef @.str.110, ptr noundef %79)
  %81 = icmp ne i32 %80, 0
  br i1 %81, label %83, label %82

82:                                               ; preds = %77, %66
  br label %151

83:                                               ; preds = %77
  %84 = load i64, ptr %5, align 8, !tbaa !22
  %85 = add i64 %84, -1
  store i64 %85, ptr %5, align 8, !tbaa !22
  %86 = load ptr, ptr %9, align 8, !tbaa !65
  %87 = load ptr, ptr %4, align 8, !tbaa !4
  %88 = load ptr, ptr %2, align 8, !tbaa !63
  %89 = getelementptr inbounds nuw %struct.sig_params_st, ptr %88, i32 0, i32 0
  %90 = load ptr, ptr %89, align 8, !tbaa !71
  %91 = load ptr, ptr %2, align 8, !tbaa !63
  %92 = getelementptr inbounds nuw %struct.sig_params_st, ptr %91, i32 0, i32 1
  %93 = load i64, ptr %92, align 8, !tbaa !72
  %94 = call i32 @EVP_DigestSign(ptr noundef %86, ptr noundef %87, ptr noundef %5, ptr noundef %90, i64 noundef %93)
  %95 = call i32 @test_int_eq(ptr noundef @.str.29, i32 noundef 475, ptr noundef @.str.132, ptr noundef @.str.92, i32 noundef %94, i32 noundef 0)
  %96 = icmp ne i32 %95, 0
  br i1 %96, label %98, label %97

97:                                               ; preds = %83
  br label %151

98:                                               ; preds = %83
  %99 = load i64, ptr %5, align 8, !tbaa !22
  %100 = add i64 %99, 1
  store i64 %100, ptr %5, align 8, !tbaa !22
  %101 = load ptr, ptr %9, align 8, !tbaa !65
  %102 = load ptr, ptr @lib_ctx, align 8, !tbaa !43
  %103 = load ptr, ptr %3, align 8, !tbaa !15
  %104 = getelementptr inbounds [3 x %struct.ossl_param_st], ptr %6, i64 0, i64 0
  %105 = call i32 @EVP_DigestSignInit_ex(ptr noundef %101, ptr noundef null, ptr noundef null, ptr noundef %102, ptr noundef @.str.129, ptr noundef %103, ptr noundef %104)
  %106 = call i32 @test_int_eq(ptr noundef @.str.29, i32 noundef 479, ptr noundef @.str.130, ptr noundef @.str.44, i32 noundef %105, i32 noundef 1)
  %107 = icmp ne i32 %106, 0
  br i1 %107, label %108, label %149

108:                                              ; preds = %98
  %109 = load ptr, ptr %9, align 8, !tbaa !65
  %110 = load ptr, ptr %4, align 8, !tbaa !4
  %111 = load ptr, ptr %2, align 8, !tbaa !63
  %112 = getelementptr inbounds nuw %struct.sig_params_st, ptr %111, i32 0, i32 0
  %113 = load ptr, ptr %112, align 8, !tbaa !71
  %114 = load ptr, ptr %2, align 8, !tbaa !63
  %115 = getelementptr inbounds nuw %struct.sig_params_st, ptr %114, i32 0, i32 1
  %116 = load i64, ptr %115, align 8, !tbaa !72
  %117 = call i32 @EVP_DigestSign(ptr noundef %109, ptr noundef %110, ptr noundef %5, ptr noundef %113, i64 noundef %116)
  %118 = call i32 @test_int_eq(ptr noundef @.str.29, i32 noundef 481, ptr noundef @.str.132, ptr noundef @.str.44, i32 noundef %117, i32 noundef 1)
  %119 = icmp ne i32 %118, 0
  br i1 %119, label %120, label %149

120:                                              ; preds = %108
  %121 = load ptr, ptr %9, align 8, !tbaa !65
  %122 = load ptr, ptr @lib_ctx, align 8, !tbaa !43
  %123 = load ptr, ptr %3, align 8, !tbaa !15
  %124 = getelementptr inbounds [3 x %struct.ossl_param_st], ptr %6, i64 0, i64 0
  %125 = call i32 @EVP_DigestVerifyInit_ex(ptr noundef %121, ptr noundef null, ptr noundef @.str.62, ptr noundef %122, ptr noundef @.str.129, ptr noundef %123, ptr noundef %124)
  %126 = call i32 @test_int_eq(ptr noundef @.str.29, i32 noundef 484, ptr noundef @.str.133, ptr noundef @.str.92, i32 noundef %125, i32 noundef 0)
  %127 = icmp ne i32 %126, 0
  br i1 %127, label %128, label %149

128:                                              ; preds = %120
  %129 = load ptr, ptr %9, align 8, !tbaa !65
  %130 = load ptr, ptr @lib_ctx, align 8, !tbaa !43
  %131 = load ptr, ptr %3, align 8, !tbaa !15
  %132 = getelementptr inbounds [3 x %struct.ossl_param_st], ptr %6, i64 0, i64 0
  %133 = call i32 @EVP_DigestVerifyInit_ex(ptr noundef %129, ptr noundef null, ptr noundef null, ptr noundef %130, ptr noundef @.str.129, ptr noundef %131, ptr noundef %132)
  %134 = call i32 @test_int_eq(ptr noundef @.str.29, i32 noundef 487, ptr noundef @.str.134, ptr noundef @.str.44, i32 noundef %133, i32 noundef 1)
  %135 = icmp ne i32 %134, 0
  br i1 %135, label %136, label %149

136:                                              ; preds = %128
  %137 = load ptr, ptr %9, align 8, !tbaa !65
  %138 = load ptr, ptr %4, align 8, !tbaa !4
  %139 = load i64, ptr %5, align 8, !tbaa !22
  %140 = load ptr, ptr %2, align 8, !tbaa !63
  %141 = getelementptr inbounds nuw %struct.sig_params_st, ptr %140, i32 0, i32 0
  %142 = load ptr, ptr %141, align 8, !tbaa !71
  %143 = load ptr, ptr %2, align 8, !tbaa !63
  %144 = getelementptr inbounds nuw %struct.sig_params_st, ptr %143, i32 0, i32 1
  %145 = load i64, ptr %144, align 8, !tbaa !72
  %146 = call i32 @EVP_DigestVerify(ptr noundef %137, ptr noundef %138, i64 noundef %139, ptr noundef %142, i64 noundef %145)
  %147 = call i32 @test_int_eq(ptr noundef @.str.29, i32 noundef 489, ptr noundef @.str.135, ptr noundef @.str.44, i32 noundef %146, i32 noundef 1)
  %148 = icmp ne i32 %147, 0
  br i1 %148, label %150, label %149

149:                                              ; preds = %136, %128, %120, %108, %98
  br label %151

150:                                              ; preds = %136
  store i32 1, ptr %1, align 4, !tbaa !9
  br label %151

151:                                              ; preds = %150, %149, %97, %82, %65, %59, %18
  %152 = load ptr, ptr %3, align 8, !tbaa !15
  call void @EVP_PKEY_free(ptr noundef %152)
  %153 = load ptr, ptr %9, align 8, !tbaa !65
  call void @EVP_MD_CTX_free(ptr noundef %153)
  %154 = load ptr, ptr %4, align 8, !tbaa !4
  call void @CRYPTO_free(ptr noundef %154, ptr noundef @.str.29, i32 noundef 495)
  %155 = load i32, ptr %1, align 4, !tbaa !9
  call void @llvm.lifetime.end.p0(i64 8, ptr %9) #4
  call void @llvm.lifetime.end.p0(i64 8, ptr %8) #4
  call void @llvm.lifetime.end.p0(i64 8, ptr %7) #4
  call void @llvm.lifetime.end.p0(i64 120, ptr %6) #4
  call void @llvm.lifetime.end.p0(i64 8, ptr %5) #4
  call void @llvm.lifetime.end.p0(i64 8, ptr %4) #4
  call void @llvm.lifetime.end.p0(i64 8, ptr %3) #4
  call void @llvm.lifetime.end.p0(i64 8, ptr %2) #4
  call void @llvm.lifetime.end.p0(i64 4, ptr %1) #4
  ret i32 %155
}