; Function Attrs: nounwind uwtable
define internal range(i32 0, 2) i32 @ml_dsa_digest_sign_verify_test() #1 {
  %1 = alloca i64, align 8
  %2 = alloca [3 x %struct.ossl_param_st], align 16
  %3 = alloca %struct.ossl_param_st, align 8
  %4 = alloca %struct.ossl_param_st, align 8
  call void @llvm.lifetime.start.p0(i64 8, ptr nonnull %1) #5
  store i64 0, ptr %1, align 8, !tbaa !13
  call void @llvm.lifetime.start.p0(i64 120, ptr nonnull %2) #5
  %5 = tail call fastcc ptr @do_gen_key(ptr noundef nonnull @.str.74, ptr noundef null, i64 noundef 0)
  %6 = tail call i32 @test_ptr(ptr noundef nonnull @.str.29, i32 noundef 450, ptr noundef nonnull @.str.104, ptr noundef %5) #5
  %.not = icmp eq i32 %6, 0
  br i1 %.not, label %68, label %7

7:                                                ; preds = %0
  %8 = getelementptr inbounds nuw i8, ptr %2, i64 40
  call void @OSSL_PARAM_construct_int(ptr dead_on_unwind nonnull writable sret(%struct.ossl_param_st) align 8 %2, ptr noundef nonnull @.str.48, ptr noundef nonnull getelementptr inbounds nuw (i8, ptr @sig_params, i64 32)) #5
  %9 = load ptr, ptr getelementptr inbounds nuw (i8, ptr @sig_params, i64 16), align 16, !tbaa !33
  %.not40 = icmp eq ptr %9, null
  br i1 %.not40, label %13, label %10

10:                                               ; preds = %7
  %11 = getelementptr inbounds nuw i8, ptr %2, i64 80
  call void @llvm.lifetime.start.p0(i64 40, ptr nonnull %3) #5
  %12 = load i64, ptr getelementptr inbounds nuw (i8, ptr @sig_params, i64 24), align 8, !tbaa !35
  call void @OSSL_PARAM_construct_octet_string(ptr dead_on_unwind nonnull writable sret(%struct.ossl_param_st) align 8 %3, ptr noundef nonnull @.str.105, ptr noundef nonnull %9, i64 noundef %12) #5
  call void @llvm.memcpy.p0.p0.i64(ptr noundef nonnull align 8 dereferenceable(40) %8, ptr noundef nonnull align 8 dereferenceable(40) %3, i64 40, i1 false), !tbaa.struct !20
  call void @llvm.lifetime.end.p0(i64 40, ptr nonnull %3) #5
  br label %13

13:                                               ; preds = %10, %7
  %.038 = phi ptr [ %11, %10 ], [ %8, %7 ]
  call void @llvm.lifetime.start.p0(i64 40, ptr nonnull %4) #5
  call void @OSSL_PARAM_construct_end(ptr dead_on_unwind nonnull writable sret(%struct.ossl_param_st) align 8 %4) #5
  call void @llvm.memcpy.p0.p0.i64(ptr noundef nonnull align 8 dereferenceable(40) %.038, ptr noundef nonnull align 8 dereferenceable(40) %4, i64 40, i1 false), !tbaa.struct !20
  call void @llvm.lifetime.end.p0(i64 40, ptr nonnull %4) #5
  %14 = call ptr @EVP_MD_CTX_new() #5
  %15 = call i32 @test_ptr(ptr noundef nonnull @.str.29, i32 noundef 460, ptr noundef nonnull @.str.127, ptr noundef %14) #5
  %.not41 = icmp eq i32 %15, 0
  br i1 %.not41, label %68, label %16

16:                                               ; preds = %13
  %17 = load ptr, ptr @lib_ctx, align 8, !tbaa !27
  %18 = call i32 @EVP_DigestSignInit_ex(ptr noundef %14, ptr noundef null, ptr noundef nonnull @.str.62, ptr noundef %17, ptr noundef nonnull @.str.129, ptr noundef %5, ptr noundef nonnull %2) #5
  %19 = call i32 @test_int_eq(ptr noundef nonnull @.str.29, i32 noundef 463, ptr noundef nonnull @.str.128, ptr noundef nonnull @.str.92, i32 noundef %18, i32 noundef 0) #5
  %.not42 = icmp eq i32 %19, 0
  br i1 %.not42, label %68, label %20

20:                                               ; preds = %16
  %21 = load ptr, ptr @lib_ctx, align 8, !tbaa !27
  %22 = call i32 @EVP_DigestSignInit_ex(ptr noundef %14, ptr noundef null, ptr noundef null, ptr noundef %21, ptr noundef nonnull @.str.129, ptr noundef %5, ptr noundef nonnull %2) #5
  %23 = call i32 @test_int_eq(ptr noundef nonnull @.str.29, i32 noundef 465, ptr noundef nonnull @.str.130, ptr noundef nonnull @.str.44, i32 noundef %22, i32 noundef 1) #5
  %.not43 = icmp eq i32 %23, 0
  br i1 %.not43, label %68, label %24

24:                                               ; preds = %20
  %25 = load i32, ptr getelementptr inbounds nuw (i8, ptr @sig_params, i64 36), align 4, !tbaa !36
  %26 = icmp eq i32 %25, 0
  br i1 %26, label %68, label %27

27:                                               ; preds = %24
  %28 = load ptr, ptr @sig_params, align 16, !tbaa !37
  %29 = load i64, ptr getelementptr inbounds nuw (i8, ptr @sig_params, i64 8), align 8, !tbaa !38
  %30 = call i32 @EVP_DigestSign(ptr noundef %14, ptr noundef null, ptr noundef nonnull %1, ptr noundef %28, i64 noundef %29) #5
  %31 = call i32 @test_int_eq(ptr noundef nonnull @.str.29, i32 noundef 471, ptr noundef nonnull @.str.131, ptr noundef nonnull @.str.44, i32 noundef %30, i32 noundef 1) #5
  %.not44 = icmp eq i32 %31, 0
  br i1 %.not44, label %68, label %32

32:                                               ; preds = %27
  %33 = load i64, ptr %1, align 8, !tbaa !13
  %34 = call noalias ptr @CRYPTO_zalloc(i64 noundef %33, ptr noundef nonnull @.str.29, i32 noundef 472) #5
  %35 = call i32 @test_ptr(ptr noundef nonnull @.str.29, i32 noundef 472, ptr noundef nonnull @.str.110, ptr noundef %34) #5
  %.not45 = icmp eq i32 %35, 0
  br i1 %.not45, label %68, label %36

36:                                               ; preds = %32
  %37 = load i64, ptr %1, align 8, !tbaa !13
  %38 = add i64 %37, -1
  store i64 %38, ptr %1, align 8, !tbaa !13
  %39 = load ptr, ptr @sig_params, align 16, !tbaa !37
  %40 = load i64, ptr getelementptr inbounds nuw (i8, ptr @sig_params, i64 8), align 8, !tbaa !38
  %41 = call i32 @EVP_DigestSign(ptr noundef %14, ptr noundef %34, ptr noundef nonnull %1, ptr noundef %39, i64 noundef %40) #5
  %42 = call i32 @test_int_eq(ptr noundef nonnull @.str.29, i32 noundef 475, ptr noundef nonnull @.str.132, ptr noundef nonnull @.str.92, i32 noundef %41, i32 noundef 0) #5
  %.not46 = icmp eq i32 %42, 0
  br i1 %.not46, label %68, label %43

43:                                               ; preds = %36
  %44 = load i64, ptr %1, align 8, !tbaa !13
  %45 = add i64 %44, 1
  store i64 %45, ptr %1, align 8, !tbaa !13
  %46 = load ptr, ptr @lib_ctx, align 8, !tbaa !27
  %47 = call i32 @EVP_DigestSignInit_ex(ptr noundef %14, ptr noundef null, ptr noundef null, ptr noundef %46, ptr noundef nonnull @.str.129, ptr noundef %5, ptr noundef nonnull %2) #5
  %48 = call i32 @test_int_eq(ptr noundef nonnull @.str.29, i32 noundef 479, ptr noundef nonnull @.str.130, ptr noundef nonnull @.str.44, i32 noundef %47, i32 noundef 1) #5
  %.not47 = icmp eq i32 %48, 0
  br i1 %.not47, label %68, label %49

49:                                               ; preds = %43
  %50 = load ptr, ptr @sig_params, align 16, !tbaa !37
  %51 = load i64, ptr getelementptr inbounds nuw (i8, ptr @sig_params, i64 8), align 8, !tbaa !38
  %52 = call i32 @EVP_DigestSign(ptr noundef %14, ptr noundef %34, ptr noundef nonnull %1, ptr noundef %50, i64 noundef %51) #5
  %53 = call i32 @test_int_eq(ptr noundef nonnull @.str.29, i32 noundef 481, ptr noundef nonnull @.str.132, ptr noundef nonnull @.str.44, i32 noundef %52, i32 noundef 1) #5
  %.not48 = icmp eq i32 %53, 0
  br i1 %.not48, label %68, label %54

54:                                               ; preds = %49
  %55 = load ptr, ptr @lib_ctx, align 8, !tbaa !27
  %56 = call i32 @EVP_DigestVerifyInit_ex(ptr noundef %14, ptr noundef null, ptr noundef nonnull @.str.62, ptr noundef %55, ptr noundef nonnull @.str.129, ptr noundef %5, ptr noundef nonnull %2) #5
  %57 = call i32 @test_int_eq(ptr noundef nonnull @.str.29, i32 noundef 484, ptr noundef nonnull @.str.133, ptr noundef nonnull @.str.92, i32 noundef %56, i32 noundef 0) #5
  %.not49 = icmp eq i32 %57, 0
  br i1 %.not49, label %68, label %58

58:                                               ; preds = %54
  %59 = load ptr, ptr @lib_ctx, align 8, !tbaa !27
  %60 = call i32 @EVP_DigestVerifyInit_ex(ptr noundef %14, ptr noundef null, ptr noundef null, ptr noundef %59, ptr noundef nonnull @.str.129, ptr noundef %5, ptr noundef nonnull %2) #5
  %61 = call i32 @test_int_eq(ptr noundef nonnull @.str.29, i32 noundef 487, ptr noundef nonnull @.str.134, ptr noundef nonnull @.str.44, i32 noundef %60, i32 noundef 1) #5
  %.not50 = icmp eq i32 %61, 0
  br i1 %.not50, label %68, label %62

62:                                               ; preds = %58
  %63 = load i64, ptr %1, align 8, !tbaa !13
  %64 = load ptr, ptr @sig_params, align 16, !tbaa !37
  %65 = load i64, ptr getelementptr inbounds nuw (i8, ptr @sig_params, i64 8), align 8, !tbaa !38
  %66 = call i32 @EVP_DigestVerify(ptr noundef %14, ptr noundef %34, i64 noundef %63, ptr noundef %64, i64 noundef %65) #5
  %67 = call i32 @test_int_eq(ptr noundef nonnull @.str.29, i32 noundef 489, ptr noundef nonnull @.str.135, ptr noundef nonnull @.str.44, i32 noundef %66, i32 noundef 1) #5
  %.not51 = icmp ne i32 %67, 0
  %spec.select = zext i1 %.not51 to i32
  br label %68

68:                                               ; preds = %62, %24, %43, %49, %54, %58, %36, %27, %32, %13, %16, %20, %0
  %.039 = phi ptr [ %34, %58 ], [ %34, %54 ], [ %34, %49 ], [ %34, %43 ], [ %34, %36 ], [ %34, %32 ], [ null, %27 ], [ null, %20 ], [ null, %16 ], [ null, %13 ], [ null, %0 ], [ null, %24 ], [ %34, %62 ]
  %.037 = phi i32 [ 0, %58 ], [ 0, %54 ], [ 0, %49 ], [ 0, %43 ], [ 0, %36 ], [ 0, %32 ], [ 0, %27 ], [ 0, %20 ], [ 0, %16 ], [ 0, %13 ], [ 0, %0 ], [ 1, %24 ], [ %spec.select, %62 ]
  %.0 = phi ptr [ %14, %58 ], [ %14, %54 ], [ %14, %49 ], [ %14, %43 ], [ %14, %36 ], [ %14, %32 ], [ %14, %27 ], [ %14, %20 ], [ %14, %16 ], [ %14, %13 ], [ null, %0 ], [ %14, %24 ], [ %14, %62 ]
  call void @EVP_PKEY_free(ptr noundef %5) #5
  call void @EVP_MD_CTX_free(ptr noundef %.0) #5
  call void @CRYPTO_free(ptr noundef %.039, ptr noundef nonnull @.str.29, i32 noundef 495) #5
  call void @llvm.lifetime.end.p0(i64 120, ptr nonnull %2) #5
  call void @llvm.lifetime.end.p0(i64 8, ptr nonnull %1) #5
  ret i32 %.037
}